target datalayout = "e-m:e-p270:32:32-p271:32:32-p272:64:64-i64:64-i128:128-f80:128-n8:16:32:64-S128"
target triple = "x86_64-pc-linux-gnu"

; Function Attrs: nounwind uwtable
define i32 @stbsp__strlen_limited(ptr noundef %0, i32 noundef %1) #0 {
  %3 = alloca i32, align 4
  %4 = alloca ptr, align 8
  %5 = alloca i32, align 4
  %6 = alloca ptr, align 8
  %7 = alloca i32, align 4
  %8 = alloca i32, align 4
  store ptr %0, ptr %4, align 8, !tbaa !8
  store i32 %1, ptr %5, align 4, !tbaa !6
  call void @llvm.lifetime.start.p0(i64 8, ptr %6) #5
  %9 = load ptr, ptr %4, align 8, !tbaa !8
  store ptr %9, ptr %6, align 8, !tbaa !8
  br label %10

10:                                               ; preds = %31, %2
  %11 = load ptr, ptr %6, align 8, !tbaa !8
  %12 = ptrtoint ptr %11 to i64
  %13 = and i64 %12, 3
  %14 = icmp eq i64 %13, 0
  br i1 %14, label %15, label %16

15:                                               ; preds = %10
  br label %36

16:                                               ; preds = %10
  %17 = load i32, ptr %5, align 4, !tbaa !6
  %18 = icmp ne i32 %17, 0
  br i1 %18, label %19, label %24

19:                                               ; preds = %16
  %20 = load ptr, ptr %6, align 8, !tbaa !8
  %21 = load i8, ptr %20, align 1, !tbaa !3
  %22 = sext i8 %21 to i32
  %23 = icmp eq i32 %22, 0
  br i1 %23, label %24, label %31

24:                                               ; preds = %19, %16
  %25 = load ptr, ptr %6, align 8, !tbaa !8
  %26 = load ptr, ptr %4, align 8, !tbaa !8
  %27 = ptrtoint ptr %25 to i64
  %28 = ptrtoint ptr %26 to i64
  %29 = sub i64 %27, %28
  %30 = trunc i64 %29 to i32
  store i32 %30, ptr %3, align 4
  store i32 1, ptr %7, align 4
  br label %83

31:                                               ; preds = %19
  %32 = load ptr, ptr %6, align 8, !tbaa !8
  %33 = getelementptr inbounds nuw i8, ptr %32, i32 1
  store ptr %33, ptr %6, align 8, !tbaa !8
  %34 = load i32, ptr %5, align 4, !tbaa !6
  %35 = add i32 %34, -1
  store i32 %35, ptr %5, align 4, !tbaa !6
  br label %10

36:                                               ; preds = %15
  br label %37

37:                                               ; preds = %59, %36
  %38 = load i32, ptr %5, align 4, !tbaa !6
  %39 = icmp uge i32 %38, 4
  br i1 %39, label %40, label %60

40:                                               ; preds = %37
  call void @llvm.lifetime.start.p0(i64 4, ptr %8) #5
  %41 = load ptr, ptr %6, align 8, !tbaa !8
  %42 = load i32, ptr %41, align 4, !tbaa !6
  store i32 %42, ptr %8, align 4, !tbaa !6
  %43 = load i32, ptr %8, align 4, !tbaa !6
  %44 = sub i32 %43, 16843009
  %45 = load i32, ptr %8, align 4, !tbaa !6
  %46 = xor i32 %45, -1
  %47 = and i32 %44, %46
  %48 = zext i32 %47 to i64
  %49 = and i64 %48, 2155905152
  %50 = icmp ne i64 %49, 0
  br i1 %50, label %51, label %52

51:                                               ; preds = %40
  store i32 5, ptr %7, align 4
  br label %57

52:                                               ; preds = %40
  %53 = load ptr, ptr %6, align 8, !tbaa !8
  %54 = getelementptr inbounds i8, ptr %53, i64 4
  store ptr %54, ptr %6, align 8, !tbaa !8
  %55 = load i32, ptr %5, align 4, !tbaa !6
  %56 = sub i32 %55, 4
  store i32 %56, ptr %5, align 4, !tbaa !6
  store i32 0, ptr %7, align 4
  br label %57

57:                                               ; preds = %52, %51
  call void @llvm.lifetime.end.p0(i64 4, ptr %8) #5
  %58 = load i32, ptr %7, align 4
  switch i32 %58, label %85 [
    i32 0, label %59
    i32 5, label %60
  ]

59:                                               ; preds = %57
  br label %37, !llvm.loop !11

60:                                               ; preds = %57, %37
  br label %61

61:                                               ; preds = %71, %60
  %62 = load i32, ptr %5, align 4, !tbaa !6
  %63 = icmp ne i32 %62, 0
  br i1 %63, label %64, label %69

64:                                               ; preds = %61
  %65 = load ptr, ptr %6, align 8, !tbaa !8
  %66 = load i8, ptr %65, align 1, !tbaa !3
  %67 = sext i8 %66 to i32
  %68 = icmp ne i32 %67, 0
  br label %69

69:                                               ; preds = %64, %61
  %70 = phi i1 [ false, %61 ], [ %68, %64 ]
  br i1 %70, label %71, label %76

71:                                               ; preds = %69
  %72 = load ptr, ptr %6, align 8, !tbaa !8
  %73 = getelementptr inbounds nuw i8, ptr %72, i32 1
  store ptr %73, ptr %6, align 8, !tbaa !8
  %74 = load i32, ptr %5, align 4, !tbaa !6
  %75 = add i32 %74, -1
  store i32 %75, ptr %5, align 4, !tbaa !6
  br label %61, !llvm.loop !13

76:                                               ; preds = %69
  %77 = load ptr, ptr %6, align 8, !tbaa !8
  %78 = load ptr, ptr %4, align 8, !tbaa !8
  %79 = ptrtoint ptr %77 to i64
  %80 = ptrtoint ptr %78 to i64
  %81 = sub i64 %79, %80
  %82 = trunc i64 %81 to i32
  store i32 %82, ptr %3, align 4
  store i32 1, ptr %7, align 4
  br label %83

83:                                               ; preds = %76, %24
  call void @llvm.lifetime.end.p0(i64 8, ptr %6) #5
  %84 = load i32, ptr %3, align 4
  ret i32 %84

85:                                               ; preds = %57
  unreachable
}