; Function Attrs: nofree norecurse nosync nounwind memory(argmem: read) uwtable
define i32 @stbsp__strlen_limited(ptr noundef %0, i32 noundef %1) local_unnamed_addr #2 {
  %3 = ptrtoint ptr %0 to i64
  %4 = and i64 %3, 3
  %5 = icmp eq i64 %4, 0
  br i1 %5, label %.preheader.preheader, label %.lr.ph.preheader

.lr.ph.preheader:                                 ; preds = %2
  %6 = zext i32 %1 to i64
  %7 = add i64 %3, %6
  %.not58 = icmp eq i32 %1, 0
  br i1 %.not58, label %.loopexit, label %.lr.ph61

.lr.ph:                                           ; preds = %11
  %.not = icmp eq i32 %13, 0
  br i1 %.not, label %.loopexit, label %.lr.ph61

.lr.ph61:                                         ; preds = %.lr.ph.preheader, %.lr.ph
  %.0233460 = phi i32 [ %13, %.lr.ph ], [ %1, %.lr.ph.preheader ]
  %.0223559 = phi ptr [ %12, %.lr.ph ], [ %0, %.lr.ph.preheader ]
  %8 = phi i64 [ %14, %.lr.ph ], [ %3, %.lr.ph.preheader ]
  %9 = load i8, ptr %.0223559, align 1, !tbaa !3
  %10 = icmp eq i8 %9, 0
  br i1 %10, label %.loopexit, label %11

11:                                               ; preds = %.lr.ph61
  %12 = getelementptr inbounds nuw i8, ptr %.0223559, i64 1
  %13 = add i32 %.0233460, -1
  %14 = ptrtoint ptr %12 to i64
  %15 = and i64 %14, 3
  %16 = icmp eq i64 %15, 0
  br i1 %16, label %.preheader.preheader, label %.lr.ph

.preheader.preheader:                             ; preds = %11, %2
  %.124.ph = phi i32 [ %1, %2 ], [ %13, %11 ]
  %.1.ph = phi ptr [ %0, %2 ], [ %12, %11 ]
  br label %.preheader

.preheader:                                       ; preds = %.preheader.preheader, %18
  %.124 = phi i32 [ %24, %18 ], [ %.124.ph, %.preheader.preheader ]
  %.1 = phi ptr [ %23, %18 ], [ %.1.ph, %.preheader.preheader ]
  %17 = icmp ugt i32 %.124, 3
  br i1 %17, label %18, label %25

18:                                               ; preds = %.preheader
  %19 = load i32, ptr %.1, align 4, !tbaa !6
  %20 = sub i32 16843008, %19
  %21 = or i32 %20, %19
  %22 = and i32 %21, -2139062144
  %.not28 = icmp eq i32 %22, -2139062144
  %23 = getelementptr inbounds nuw i8, ptr %.1, i64 4
  %24 = add i32 %.124, -4
  br i1 %.not28, label %.preheader, label %.lr.ph40.preheader

25:                                               ; preds = %.preheader
  %.not2937 = icmp eq i32 %.124, 0
  br i1 %.not2937, label %.critedge, label %.lr.ph40.preheader

.lr.ph40.preheader:                               ; preds = %18, %25
  br label %.lr.ph40

.lr.ph40:                                         ; preds = %.lr.ph40.preheader, %27
  %.439 = phi ptr [ %28, %27 ], [ %.1, %.lr.ph40.preheader ]
  %.42738 = phi i32 [ %29, %27 ], [ %.124, %.lr.ph40.preheader ]
  %26 = load i8, ptr %.439, align 1, !tbaa !3
  %.not30 = icmp eq i8 %26, 0
  br i1 %.not30, label %.critedge, label %27

27:                                               ; preds = %.lr.ph40
  %28 = getelementptr inbounds nuw i8, ptr %.439, i64 1
  %29 = add i32 %.42738, -1
  %.not29 = icmp eq i32 %29, 0
  br i1 %.not29, label %.critedge, label %.lr.ph40, !llvm.loop !8

.critedge:                                        ; preds = %.lr.ph40, %27, %25
  %.4.lcssa = phi ptr [ %.1, %25 ], [ %28, %27 ], [ %.439, %.lr.ph40 ]
  %30 = ptrtoint ptr %.4.lcssa to i64
  br label %.loopexit

.loopexit:                                        ; preds = %.lr.ph61, %.lr.ph, %.lr.ph.preheader, %.critedge
  %.pn = phi i64 [ %30, %.critedge ], [ %7, %.lr.ph.preheader ], [ %7, %.lr.ph ], [ %8, %.lr.ph61 ]
  %.0.in = sub i64 %.pn, %3
  %.0 = trunc i64 %.0.in to i32
  ret i32 %.0
}